; Function Attrs: mustprogress uwtable
define void @_ZN8facebook5velox9functions42registerVectorFunction_udf_array_sort_descERKNSt7__cxx1112basic_stringIcSt11char_traitsIcESaIcEEE(ptr noundef nonnull align 8 dereferenceable(32) %name) local_unnamed_addr #0 personality ptr @__gxx_personality_v0 {
entry:
  %agg.tmp = alloca %"class.std::vector.42", align 8
  %agg.tmp1 = alloca %"class.std::function", align 8
  call fastcc void @_ZN8facebook5velox9functions12_GLOBAL__N_110signaturesEb(ptr noalias nonnull align 8 %agg.tmp, i1 noundef zeroext false)
  %_M_manager.i.i = getelementptr inbounds i8, ptr %agg.tmp1, i64 16
  %_M_invoker.i = getelementptr inbounds i8, ptr %agg.tmp1, i64 24
  %0 = getelementptr inbounds i8, ptr %agg.tmp1, i64 8
  store i64 0, ptr %0, align 8
  store ptr @_ZN8facebook5velox9functions12_GLOBAL__N_110createDescERKNSt7__cxx1112basic_stringIcSt11char_traitsIcESaIcEEERKSt6vectorINS0_4exec17VectorFunctionArgESaISD_EERKNS0_4core11QueryConfigE, ptr %agg.tmp1, align 8
  store ptr @_ZNSt17_Function_handlerIFSt10shared_ptrIN8facebook5velox4exec14VectorFunctionEERKNSt7__cxx1112basic_stringIcSt11char_traitsIcESaIcEEERKSt6vectorINS3_17VectorFunctionArgESaISF_EERKNS2_4core11QueryConfigEEPSO_E9_M_invokeERKSt9_Any_dataSD_SJ_SN_, ptr %_M_invoker.i, align 8
  store ptr @_ZNSt17_Function_handlerIFSt10shared_ptrIN8facebook5velox4exec14VectorFunctionEERKNSt7__cxx1112basic_stringIcSt11char_traitsIcESaIcEEERKSt6vectorINS3_17VectorFunctionArgESaISF_EERKNS2_4core11QueryConfigEEPSO_E10_M_managerERSt9_Any_dataRKSR_St18_Manager_operation, ptr %_M_manager.i.i, align 8
  %call = invoke noundef zeroext i1 @_ZN8facebook5velox4exec30registerStatefulVectorFunctionERKNSt7__cxx1112basic_stringIcSt11char_traitsIcESaIcEEESt6vectorISt10shared_ptrINS1_17FunctionSignatureEESaISD_EESt8functionIFSB_INS1_14VectorFunctionEES9_RKSA_INS1_17VectorFunctionArgESaISJ_EERKNS0_4core11QueryConfigEEENS1_22VectorFunctionMetadataEb(ptr noundef nonnull align 8 dereferenceable(32) %name, ptr noundef nonnull %agg.tmp, ptr noundef nonnull %agg.tmp1, i8 0, i1 noundef zeroext true)
          to label %invoke.cont unwind label %lpad

invoke.cont:                                      ; preds = %entry
  %1 = load ptr, ptr %_M_manager.i.i, align 8
  %tobool.not.i.i = icmp eq ptr %1, null
  br i1 %tobool.not.i.i, label %_ZNSt8functionIFSt10shared_ptrIN8facebook5velox4exec14VectorFunctionEERKNSt7__cxx1112basic_stringIcSt11char_traitsIcESaIcEEERKSt6vectorINS3_17VectorFunctionArgESaISF_EERKNS2_4core11QueryConfigEEED2Ev.exit, label %if.then.i.i

if.then.i.i:                                      ; preds = %invoke.cont
  %call.i.i = invoke noundef zeroext i1 %1(ptr noundef nonnull align 8 dereferenceable(16) %agg.tmp1, ptr noundef nonnull align 8 dereferenceable(16) %agg.tmp1, i32 noundef 3)
          to label %_ZNSt8functionIFSt10shared_ptrIN8facebook5velox4exec14VectorFunctionEERKNSt7__cxx1112basic_stringIcSt11char_traitsIcESaIcEEERKSt6vectorINS3_17VectorFunctionArgESaISF_EERKNS2_4core11QueryConfigEEED2Ev.exit unwind label %terminate.lpad.i.i

terminate.lpad.i.i:                               ; preds = %if.then.i.i
  %2 = landingpad { ptr, i32 }
          catch ptr null
  %3 = extractvalue { ptr, i32 } %2, 0
  call void @__clang_call_terminate(ptr %3) #27
  unreachable

_ZNSt8functionIFSt10shared_ptrIN8facebook5velox4exec14VectorFunctionEERKNSt7__cxx1112basic_stringIcSt11char_traitsIcESaIcEEERKSt6vectorINS3_17VectorFunctionArgESaISF_EERKNS2_4core11QueryConfigEEED2Ev.exit: ; preds = %invoke.cont, %if.then.i.i
  %4 = load ptr, ptr %agg.tmp, align 8
  %_M_finish.i = getelementptr inbounds i8, ptr %agg.tmp, i64 8
  %5 = load ptr, ptr %_M_finish.i, align 8
  %cmp.not3.i.i.i.i = icmp eq ptr %4, %5
  br i1 %cmp.not3.i.i.i.i, label %invoke.cont.i, label %for.body.i.i.i.i

for.body.i.i.i.i:                                 ; preds = %_ZNSt8functionIFSt10shared_ptrIN8facebook5velox4exec14VectorFunctionEERKNSt7__cxx1112basic_stringIcSt11char_traitsIcESaIcEEERKSt6vectorINS3_17VectorFunctionArgESaISF_EERKNS2_4core11QueryConfigEEED2Ev.exit, %_ZSt8_DestroyISt10shared_ptrIN8facebook5velox4exec17FunctionSignatureEEEvPT_.exit.i.i.i.i
  %__first.addr.04.i.i.i.i = phi ptr [ %incdec.ptr.i.i.i.i, %_ZSt8_DestroyISt10shared_ptrIN8facebook5velox4exec17FunctionSignatureEEEvPT_.exit.i.i.i.i ], [ %4, %_ZNSt8functionIFSt10shared_ptrIN8facebook5velox4exec14VectorFunctionEERKNSt7__cxx1112basic_stringIcSt11char_traitsIcESaIcEEERKSt6vectorINS3_17VectorFunctionArgESaISF_EERKNS2_4core11QueryConfigEEED2Ev.exit ]
  %_M_refcount.i.i.i.i.i.i.i = getelementptr inbounds i8, ptr %__first.addr.04.i.i.i.i, i64 8
  %6 = load ptr, ptr %_M_refcount.i.i.i.i.i.i.i, align 8
  %cmp.not.i.i.i.i.i.i.i.i = icmp eq ptr %6, null
  br i1 %cmp.not.i.i.i.i.i.i.i.i, label %_ZSt8_DestroyISt10shared_ptrIN8facebook5velox4exec17FunctionSignatureEEEvPT_.exit.i.i.i.i, label %if.then.i.i.i.i.i.i.i.i

if.then.i.i.i.i.i.i.i.i:                          ; preds = %for.body.i.i.i.i
  %_M_use_count.i.i.i.i.i.i.i.i.i = getelementptr inbounds i8, ptr %6, i64 8
  %7 = load atomic i64, ptr %_M_use_count.i.i.i.i.i.i.i.i.i acquire, align 8
  %cmp.i.i.i.i.i.i.i.i.i = icmp eq i64 %7, 4294967297
  %8 = trunc i64 %7 to i32
  br i1 %cmp.i.i.i.i.i.i.i.i.i, label %if.then.i.i.i.i.i.i.i.i.i, label %if.end.i.i.i.i.i.i.i.i.i

if.then.i.i.i.i.i.i.i.i.i:                        ; preds = %if.then.i.i.i.i.i.i.i.i
  store i32 0, ptr %_M_use_count.i.i.i.i.i.i.i.i.i, align 8
  %_M_weak_count.i.i.i.i.i.i.i.i.i = getelementptr inbounds i8, ptr %6, i64 12
  store i32 0, ptr %_M_weak_count.i.i.i.i.i.i.i.i.i, align 4
  %vtable.i.i.i.i.i.i.i.i.i = load ptr, ptr %6, align 8
  %vfn.i.i.i.i.i.i.i.i.i = getelementptr inbounds i8, ptr %vtable.i.i.i.i.i.i.i.i.i, i64 16
  %9 = load ptr, ptr %vfn.i.i.i.i.i.i.i.i.i, align 8
  call void %9(ptr noundef nonnull align 8 dereferenceable(16) %6) #24
  br label %if.end8.sink.split.i.i.i.i.i.i.i.i.i

if.end.i.i.i.i.i.i.i.i.i:                         ; preds = %if.then.i.i.i.i.i.i.i.i
  %10 = load i8, ptr @__libc_single_threaded, align 1
  %tobool.i.i.not.i.i.i.i.i.i.i.i.i = icmp eq i8 %10, 0
  br i1 %tobool.i.i.not.i.i.i.i.i.i.i.i.i, label %if.else.i.i.i.i.i.i.i.i.i.i, label %if.then.i.i.i.i.i.i.i.i.i.i

if.then.i.i.i.i.i.i.i.i.i.i:                      ; preds = %if.end.i.i.i.i.i.i.i.i.i
  %add.i.i.i.i.i.i.i.i.i.i = add nsw i32 %8, -1
  store i32 %add.i.i.i.i.i.i.i.i.i.i, ptr %_M_use_count.i.i.i.i.i.i.i.i.i, align 4
  br label %_ZN9__gnu_cxx27__exchange_and_add_dispatchEPii.exit.i.i.i.i.i.i.i.i.i

if.else.i.i.i.i.i.i.i.i.i.i:                      ; preds = %if.end.i.i.i.i.i.i.i.i.i
  %11 = atomicrmw volatile add ptr %_M_use_count.i.i.i.i.i.i.i.i.i, i32 -1 acq_rel, align 4
  br label %_ZN9__gnu_cxx27__exchange_and_add_dispatchEPii.exit.i.i.i.i.i.i.i.i.i

_ZN9__gnu_cxx27__exchange_and_add_dispatchEPii.exit.i.i.i.i.i.i.i.i.i: ; preds = %if.else.i.i.i.i.i.i.i.i.i.i, %if.then.i.i.i.i.i.i.i.i.i.i
  %retval.i.0.i.i.i.i.i.i.i.i.i = phi i32 [ %8, %if.then.i.i.i.i.i.i.i.i.i.i ], [ %11, %if.else.i.i.i.i.i.i.i.i.i.i ]
  %cmp6.i.i.i.i.i.i.i.i.i = icmp eq i32 %retval.i.0.i.i.i.i.i.i.i.i.i, 1
  br i1 %cmp6.i.i.i.i.i.i.i.i.i, label %if.then7.i.i.i.i.i.i.i.i.i, label %_ZSt8_DestroyISt10shared_ptrIN8facebook5velox4exec17FunctionSignatureEEEvPT_.exit.i.i.i.i

if.then7.i.i.i.i.i.i.i.i.i:                       ; preds = %_ZN9__gnu_cxx27__exchange_and_add_dispatchEPii.exit.i.i.i.i.i.i.i.i.i
  %vtable.i.i.i.i.i.i.i.i.i.i.i = load ptr, ptr %6, align 8
  %vfn.i.i.i.i.i.i.i.i.i.i.i = getelementptr inbounds i8, ptr %vtable.i.i.i.i.i.i.i.i.i.i.i, i64 16
  %12 = load ptr, ptr %vfn.i.i.i.i.i.i.i.i.i.i.i, align 8
  call void %12(ptr noundef nonnull align 8 dereferenceable(16) %6) #24
  %_M_weak_count.i.i.i.i.i.i.i.i.i.i.i = getelementptr inbounds i8, ptr %6, i64 12
  %13 = load i8, ptr @__libc_single_threaded, align 1
  %tobool.i.i.not.i.i.i.i.i.i.i.i.i.i.i = icmp eq i8 %13, 0
  br i1 %tobool.i.i.not.i.i.i.i.i.i.i.i.i.i.i, label %if.else.i.i.i.i.i.i.i.i.i.i.i.i, label %if.then.i.i.i.i.i.i.i.i.i.i.i.i

if.then.i.i.i.i.i.i.i.i.i.i.i.i:                  ; preds = %if.then7.i.i.i.i.i.i.i.i.i
  %14 = load i32, ptr %_M_weak_count.i.i.i.i.i.i.i.i.i.i.i, align 4
  %add.i.i.i.i.i.i.i.i.i.i.i.i = add nsw i32 %14, -1
  store i32 %add.i.i.i.i.i.i.i.i.i.i.i.i, ptr %_M_weak_count.i.i.i.i.i.i.i.i.i.i.i, align 4
  br label %_ZN9__gnu_cxx27__exchange_and_add_dispatchEPii.exit.i.i.i.i.i.i.i.i.i.i.i

if.else.i.i.i.i.i.i.i.i.i.i.i.i:                  ; preds = %if.then7.i.i.i.i.i.i.i.i.i
  %15 = atomicrmw volatile add ptr %_M_weak_count.i.i.i.i.i.i.i.i.i.i.i, i32 -1 acq_rel, align 4
  br label %_ZN9__gnu_cxx27__exchange_and_add_dispatchEPii.exit.i.i.i.i.i.i.i.i.i.i.i

_ZN9__gnu_cxx27__exchange_and_add_dispatchEPii.exit.i.i.i.i.i.i.i.i.i.i.i: ; preds = %if.else.i.i.i.i.i.i.i.i.i.i.i.i, %if.then.i.i.i.i.i.i.i.i.i.i.i.i
  %retval.i.0.i.i.i.i.i.i.i.i.i.i.i = phi i32 [ %14, %if.then.i.i.i.i.i.i.i.i.i.i.i.i ], [ %15, %if.else.i.i.i.i.i.i.i.i.i.i.i.i ]
  %cmp.i.i.i.i.i.i.i.i.i.i.i = icmp eq i32 %retval.i.0.i.i.i.i.i.i.i.i.i.i.i, 1
  br i1 %cmp.i.i.i.i.i.i.i.i.i.i.i, label %if.end8.sink.split.i.i.i.i.i.i.i.i.i, label %_ZSt8_DestroyISt10shared_ptrIN8facebook5velox4exec17FunctionSignatureEEEvPT_.exit.i.i.i.i

if.end8.sink.split.i.i.i.i.i.i.i.i.i:             ; preds = %_ZN9__gnu_cxx27__exchange_and_add_dispatchEPii.exit.i.i.i.i.i.i.i.i.i.i.i, %if.then.i.i.i.i.i.i.i.i.i
  %vtable2.i.i.i.i.i.i.i.i.i.i.i = load ptr, ptr %6, align 8
  %vfn3.i.i.i.i.i.i.i.i.i.i.i = getelementptr inbounds i8, ptr %vtable2.i.i.i.i.i.i.i.i.i.i.i, i64 24
  %16 = load ptr, ptr %vfn3.i.i.i.i.i.i.i.i.i.i.i, align 8
  call void %16(ptr noundef nonnull align 8 dereferenceable(16) %6) #24
  br label %_ZSt8_DestroyISt10shared_ptrIN8facebook5velox4exec17FunctionSignatureEEEvPT_.exit.i.i.i.i

_ZSt8_DestroyISt10shared_ptrIN8facebook5velox4exec17FunctionSignatureEEEvPT_.exit.i.i.i.i: ; preds = %if.end8.sink.split.i.i.i.i.i.i.i.i.i, %_ZN9__gnu_cxx27__exchange_and_add_dispatchEPii.exit.i.i.i.i.i.i.i.i.i.i.i, %_ZN9__gnu_cxx27__exchange_and_add_dispatchEPii.exit.i.i.i.i.i.i.i.i.i, %for.body.i.i.i.i
  %incdec.ptr.i.i.i.i = getelementptr inbounds i8, ptr %__first.addr.04.i.i.i.i, i64 16
  %cmp.not.i.i.i.i = icmp eq ptr %incdec.ptr.i.i.i.i, %5
  br i1 %cmp.not.i.i.i.i, label %invoke.contthread-pre-split.i, label %for.body.i.i.i.i, !llvm.loop !26

invoke.contthread-pre-split.i:                    ; preds = %_ZSt8_DestroyISt10shared_ptrIN8facebook5velox4exec17FunctionSignatureEEEvPT_.exit.i.i.i.i
  %.pr.i = load ptr, ptr %agg.tmp, align 8
  br label %invoke.cont.i

invoke.cont.i:                                    ; preds = %invoke.contthread-pre-split.i, %_ZNSt8functionIFSt10shared_ptrIN8facebook5velox4exec14VectorFunctionEERKNSt7__cxx1112basic_stringIcSt11char_traitsIcESaIcEEERKSt6vectorINS3_17VectorFunctionArgESaISF_EERKNS2_4core11QueryConfigEEED2Ev.exit
  %17 = phi ptr [ %.pr.i, %invoke.contthread-pre-split.i ], [ %4, %_ZNSt8functionIFSt10shared_ptrIN8facebook5velox4exec14VectorFunctionEERKNSt7__cxx1112basic_stringIcSt11char_traitsIcESaIcEEERKSt6vectorINS3_17VectorFunctionArgESaISF_EERKNS2_4core11QueryConfigEEED2Ev.exit ]
  %tobool.not.i.i.i = icmp eq ptr %17, null
  br i1 %tobool.not.i.i.i, label %_ZNSt6vectorISt10shared_ptrIN8facebook5velox4exec17FunctionSignatureEESaIS5_EED2Ev.exit, label %if.then.i.i.i

if.then.i.i.i:                                    ; preds = %invoke.cont.i
  call void @_ZdlPv(ptr noundef nonnull %17) #28
  br label %_ZNSt6vectorISt10shared_ptrIN8facebook5velox4exec17FunctionSignatureEESaIS5_EED2Ev.exit

_ZNSt6vectorISt10shared_ptrIN8facebook5velox4exec17FunctionSignatureEESaIS5_EED2Ev.exit: ; preds = %invoke.cont.i, %if.then.i.i.i
  ret void

lpad:                                             ; preds = %entry
  %18 = landingpad { ptr, i32 }
          cleanup
  %19 = load ptr, ptr %_M_manager.i.i, align 8
  %tobool.not.i.i3 = icmp eq ptr %19, null
  br i1 %tobool.not.i.i3, label %_ZNSt8functionIFSt10shared_ptrIN8facebook5velox4exec14VectorFunctionEERKNSt7__cxx1112basic_stringIcSt11char_traitsIcESaIcEEERKSt6vectorINS3_17VectorFunctionArgESaISF_EERKNS2_4core11QueryConfigEEED2Ev.exit7, label %if.then.i.i4

if.then.i.i4:                                     ; preds = %lpad
  %call.i.i5 = invoke noundef zeroext i1 %19(ptr noundef nonnull align 8 dereferenceable(16) %agg.tmp1, ptr noundef nonnull align 8 dereferenceable(16) %agg.tmp1, i32 noundef 3)
          to label %_ZNSt8functionIFSt10shared_ptrIN8facebook5velox4exec14VectorFunctionEERKNSt7__cxx1112basic_stringIcSt11char_traitsIcESaIcEEERKSt6vectorINS3_17VectorFunctionArgESaISF_EERKNS2_4core11QueryConfigEEED2Ev.exit7 unwind label %terminate.lpad.i.i6

terminate.lpad.i.i6:                              ; preds = %if.then.i.i4
  %20 = landingpad { ptr, i32 }
          catch ptr null
  %21 = extractvalue { ptr, i32 } %20, 0
  call void @__clang_call_terminate(ptr %21) #27
  unreachable

_ZNSt8functionIFSt10shared_ptrIN8facebook5velox4exec14VectorFunctionEERKNSt7__cxx1112basic_stringIcSt11char_traitsIcESaIcEEERKSt6vectorINS3_17VectorFunctionArgESaISF_EERKNS2_4core11QueryConfigEEED2Ev.exit7: ; preds = %lpad, %if.then.i.i4
  call void @_ZNSt6vectorISt10shared_ptrIN8facebook5velox4exec17FunctionSignatureEESaIS5_EED2Ev(ptr noundef nonnull align 8 dereferenceable(24) %agg.tmp) #24
  resume { ptr, i32 } %18
}